target datalayout = "e-m:e-p270:32:32-p271:32:32-p272:64:64-i64:64-i128:128-f80:128-n8:16:32:64-S128"
target triple = "x86_64-unknown-linux-gnu"

%"class.datalog::sparse_table::column_info" = type { i32, i32, i64, i64, i32, i32 }
%class.vector.1 = type { ptr }

; Function Attrs: mustprogress nounwind uwtable
define linkonce_odr hidden void @_ZNK7datalog12sparse_table11column_info3setEPcm(ptr noundef nonnull align 8 dereferenceable(32) %this, ptr noundef %rec, i64 noundef %val) #5 comdat align 2 {
entry:
  %this.addr = alloca ptr, align 8
  %rec.addr = alloca ptr, align 8
  %val.addr = alloca i64, align 8
  %cell = alloca i64, align 8
  store ptr %this, ptr %this.addr, align 8
  store ptr %rec, ptr %rec.addr, align 8
  store i64 %val, ptr %val.addr, align 8
  %this1 = load ptr, ptr %this.addr, align 8
  %0 = load ptr, ptr %rec.addr, align 8
  %m_big_offset = getelementptr inbounds %"class.datalog::sparse_table::column_info", ptr %this1, i32 0, i32 0
  %1 = load i32, ptr %m_big_offset, align 8
  %idx.ext = zext i32 %1 to i64
  %add.ptr = getelementptr inbounds i8, ptr %0, i64 %idx.ext
  call void @llvm.memcpy.p0.p0.i64(ptr align 8 %cell, ptr align 1 %add.ptr, i64 8, i1 false)
  %m_write_mask = getelementptr inbounds %"class.datalog::sparse_table::column_info", ptr %this1, i32 0, i32 3
  %2 = load i64, ptr %m_write_mask, align 8
  %3 = load i64, ptr %cell, align 8
  %and = and i64 %3, %2
  store i64 %and, ptr %cell, align 8
  %4 = load i64, ptr %val.addr, align 8
  %m_small_offset = getelementptr inbounds %"class.datalog::sparse_table::column_info", ptr %this1, i32 0, i32 1
  %5 = load i32, ptr %m_small_offset, align 4
  %sh_prom = zext i32 %5 to i64
  %shl = shl i64 %4, %sh_prom
  %6 = load i64, ptr %cell, align 8
  %or = or i64 %6, %shl
  store i64 %or, ptr %cell, align 8
  %7 = load ptr, ptr %rec.addr, align 8
  %m_big_offset2 = getelementptr inbounds %"class.datalog::sparse_table::column_info", ptr %this1, i32 0, i32 0
  %8 = load i32, ptr %m_big_offset2, align 8
  %idx.ext3 = zext i32 %8 to i64
  %add.ptr4 = getelementptr inbounds i8, ptr %7, i64 %idx.ext3
  call void @llvm.memcpy.p0.p0.i64(ptr align 1 %add.ptr4, ptr align 8 %cell, i64 8, i1 false)
  ret void
}

; Function Attrs: mustprogress nounwind uwtable
define linkonce_odr hidden noundef i64 @_ZNK7datalog12sparse_table11column_info3getEPKc(ptr noundef nonnull align 8 dereferenceable(32) %this, ptr noundef %rec) #5 comdat align 2 {
entry:
  %this.addr = alloca ptr, align 8
  %rec.addr = alloca ptr, align 8
  %res = alloca i64, align 8
  store ptr %this, ptr %this.addr, align 8
  store ptr %rec, ptr %rec.addr, align 8
  %this1 = load ptr, ptr %this.addr, align 8
  %0 = load ptr, ptr %rec.addr, align 8
  %m_big_offset = getelementptr inbounds %"class.datalog::sparse_table::column_info", ptr %this1, i32 0, i32 0
  %1 = load i32, ptr %m_big_offset, align 8
  %idx.ext = zext i32 %1 to i64
  %add.ptr = getelementptr inbounds i8, ptr %0, i64 %idx.ext
  call void @llvm.memcpy.p0.p0.i64(ptr align 8 %res, ptr align 1 %add.ptr, i64 8, i1 false)
  %m_small_offset = getelementptr inbounds %"class.datalog::sparse_table::column_info", ptr %this1, i32 0, i32 1
  %2 = load i32, ptr %m_small_offset, align 4
  %3 = load i64, ptr %res, align 8
  %sh_prom = zext i32 %2 to i64
  %shr = lshr i64 %3, %sh_prom
  store i64 %shr, ptr %res, align 8
  %m_mask = getelementptr inbounds %"class.datalog::sparse_table::column_info", ptr %this1, i32 0, i32 2
  %4 = load i64, ptr %m_mask, align 8
  %5 = load i64, ptr %res, align 8
  %and = and i64 %5, %4
  store i64 %and, ptr %res, align 8
  %6 = load i64, ptr %res, align 8
  ret i64 %6
}

; Function Attrs: mustprogress nounwind uwtable
define linkonce_odr hidden noundef nonnull align 8 dereferenceable(32) ptr @_ZNK6vectorIN7datalog12sparse_table11column_infoELb0EjEixEj(ptr noundef nonnull align 8 dereferenceable(8) %this, i32 noundef %idx) #5 comdat align 2 {
entry:
  %this.addr = alloca ptr, align 8
  %idx.addr = alloca i32, align 4
  store ptr %this, ptr %this.addr, align 8
  store i32 %idx, ptr %idx.addr, align 4
  %this1 = load ptr, ptr %this.addr, align 8
  %m_data = getelementptr inbounds %class.vector.1, ptr %this1, i32 0, i32 0
  %0 = load ptr, ptr %m_data, align 8
  %1 = load i32, ptr %idx.addr, align 4
  %idxprom = zext i32 %1 to i64
  %arrayidx = getelementptr inbounds %"class.datalog::sparse_table::column_info", ptr %0, i64 %idxprom
  ret ptr %arrayidx
}

; Function Attrs: mustprogress uwtable
define linkonce_odr hidden void @_ZNK7datalog12sparse_table13column_layout3setEPcjm(ptr noundef nonnull align 8 dereferenceable(20) %this, ptr noundef %rec, i32 noundef %col, i64 noundef %val) #4 comdat align 2 {
entry:
  %this.addr = alloca ptr, align 8
  %rec.addr = alloca ptr, align 8
  %col.addr = alloca i32, align 4
  %val.addr = alloca i64, align 8
  store ptr %this, ptr %this.addr, align 8
  store ptr %rec, ptr %rec.addr, align 8
  store i32 %col, ptr %col.addr, align 4
  store i64 %val, ptr %val.addr, align 8
  %this1 = load ptr, ptr %this.addr, align 8
  %0 = load i32, ptr %col.addr, align 4
  %call = call noundef nonnull align 8 dereferenceable(32) ptr @_ZNK6vectorIN7datalog12sparse_table11column_infoELb0EjEixEj(ptr noundef nonnull align 8 dereferenceable(8) %this1, i32 noundef %0)
  %1 = load ptr, ptr %rec.addr, align 8
  %2 = load i64, ptr %val.addr, align 8
  call void @_ZNK7datalog12sparse_table11column_info3setEPcm(ptr noundef nonnull align 8 dereferenceable(32) %call, ptr noundef %1, i64 noundef %2)
  ret void
}

; Function Attrs: mustprogress uwtable
define linkonce_odr hidden noundef i64 @_ZNK7datalog12sparse_table13column_layout3getEPKcj(ptr noundef nonnull align 8 dereferenceable(20) %this, ptr noundef %rec, i32 noundef %col) #4 comdat align 2 {
entry:
  %this.addr = alloca ptr, align 8
  %rec.addr = alloca ptr, align 8
  %col.addr = alloca i32, align 4
  store ptr %this, ptr %this.addr, align 8
  store ptr %rec, ptr %rec.addr, align 8
  store i32 %col, ptr %col.addr, align 4
  %this1 = load ptr, ptr %this.addr, align 8
  %0 = load i32, ptr %col.addr, align 4
  %call = call noundef nonnull align 8 dereferenceable(32) ptr @_ZNK6vectorIN7datalog12sparse_table11column_infoELb0EjEixEj(ptr noundef nonnull align 8 dereferenceable(8) %this1, i32 noundef %0)
  %1 = load ptr, ptr %rec.addr, align 8
  %call2 = call noundef i64 @_ZNK7datalog12sparse_table11column_info3getEPKc(ptr noundef nonnull align 8 dereferenceable(32) %call, ptr noundef %1)
  ret i64 %call2
}

; Function Attrs: mustprogress uwtable
define hidden void @_ZN7datalog12sparse_table12copy_columnsERKNS0_13column_layoutES3_jjPKcPcRjS7_RPKj(ptr noundef nonnull align 8 dereferenceable(20) %src_layout, ptr noundef nonnull align 8 dereferenceable(20) %dest_layout, i32 noundef %start_index, i32 noundef %after_last, ptr noundef %src, ptr noundef %dest, ptr noundef nonnull align 4 dereferenceable(4) %dest_idx, ptr noundef nonnull align 4 dereferenceable(4) %pre_projection_idx, ptr noundef nonnull align 8 dereferenceable(8) %next_removed) #4 align 2 {
entry:
  %src_layout.addr = alloca ptr, align 8
  %dest_layout.addr = alloca ptr, align 8
  %start_index.addr = alloca i32, align 4
  %after_last.addr = alloca i32, align 4
  %src.addr = alloca ptr, align 8
  %dest.addr = alloca ptr, align 8
  %dest_idx.addr = alloca ptr, align 8
  %pre_projection_idx.addr = alloca ptr, align 8
  %next_removed.addr = alloca ptr, align 8
  %i = alloca i32, align 4
  store ptr %src_layout, ptr %src_layout.addr, align 8
  store ptr %dest_layout, ptr %dest_layout.addr, align 8
  store i32 %start_index, ptr %start_index.addr, align 4
  store i32 %after_last, ptr %after_last.addr, align 4
  store ptr %src, ptr %src.addr, align 8
  store ptr %dest, ptr %dest.addr, align 8
  store ptr %dest_idx, ptr %dest_idx.addr, align 8
  store ptr %pre_projection_idx, ptr %pre_projection_idx.addr, align 8
  store ptr %next_removed, ptr %next_removed.addr, align 8
  %0 = load i32, ptr %start_index.addr, align 4
  store i32 %0, ptr %i, align 4
  br label %for.cond

for.cond:                                         ; preds = %for.inc, %entry
  %1 = load i32, ptr %i, align 4
  %2 = load i32, ptr %after_last.addr, align 4
  %cmp = icmp ult i32 %1, %2
  br i1 %cmp, label %for.body, label %for.end

for.body:                                         ; preds = %for.cond
  %3 = load ptr, ptr %next_removed.addr, align 8
  %4 = load ptr, ptr %3, align 8
  %5 = load i32, ptr %4, align 4
  %6 = load ptr, ptr %pre_projection_idx.addr, align 8
  %7 = load i32, ptr %6, align 4
  %cmp1 = icmp eq i32 %5, %7
  br i1 %cmp1, label %if.then, label %if.end

if.then:                                          ; preds = %for.body
  %8 = load ptr, ptr %next_removed.addr, align 8
  %9 = load ptr, ptr %8, align 8
  %incdec.ptr = getelementptr inbounds i32, ptr %9, i32 1
  store ptr %incdec.ptr, ptr %8, align 8
  br label %for.inc

if.end:                                           ; preds = %for.body
  %10 = load ptr, ptr %dest_layout.addr, align 8
  %11 = load ptr, ptr %dest.addr, align 8
  %12 = load ptr, ptr %dest_idx.addr, align 8
  %13 = load i32, ptr %12, align 4
  %inc = add i32 %13, 1
  store i32 %inc, ptr %12, align 4
  %14 = load ptr, ptr %src_layout.addr, align 8
  %15 = load ptr, ptr %src.addr, align 8
  %16 = load i32, ptr %i, align 4
  %call = call noundef i64 @_ZNK7datalog12sparse_table13column_layout3getEPKcj(ptr noundef nonnull align 8 dereferenceable(20) %14, ptr noundef %15, i32 noundef %16)
  call void @_ZNK7datalog12sparse_table13column_layout3setEPcjm(ptr noundef nonnull align 8 dereferenceable(20) %10, ptr noundef %11, i32 noundef %13, i64 noundef %call)
  br label %for.inc

for.inc:                                          ; preds = %if.end, %if.then
  %17 = load i32, ptr %i, align 4
  %inc2 = add i32 %17, 1
  store i32 %inc2, ptr %i, align 4
  %18 = load ptr, ptr %pre_projection_idx.addr, align 8
  %19 = load i32, ptr %18, align 4
  %inc3 = add i32 %19, 1
  store i32 %inc3, ptr %18, align 4
  br label %for.cond, !llvm.loop !17

for.end:                                          ; preds = %for.cond
  ret void
}