; Function Attrs: mustprogress nofree norecurse nosync nounwind memory(read, argmem: readwrite, inaccessiblemem: none) uwtable
define hidden void @_ZN7datalog12sparse_table12copy_columnsERKNS0_13column_layoutES3_jjPKcPcRjS7_RPKj(ptr nocapture noundef nonnull readonly align 8 dereferenceable(20) %src_layout, ptr nocapture noundef nonnull readonly align 8 dereferenceable(20) %dest_layout, i32 noundef %start_index, i32 noundef %after_last, ptr nocapture noundef readonly %src, ptr nocapture noundef %dest, ptr nocapture noundef nonnull align 4 dereferenceable(4) %dest_idx, ptr nocapture noundef nonnull align 4 dereferenceable(4) %pre_projection_idx, ptr nocapture noundef nonnull align 8 dereferenceable(8) %next_removed) local_unnamed_addr #11 align 2 {
entry:
  %cmp12 = icmp ult i32 %start_index, %after_last
  br i1 %cmp12, label %for.body.preheader, label %for.end

for.body.preheader:                               ; preds = %entry
  %0 = zext i32 %start_index to i64
  %wide.trip.count = zext i32 %after_last to i64
  %.pre = load i32, ptr %pre_projection_idx, align 4
  br label %for.body

for.body:                                         ; preds = %for.body.preheader, %for.inc
  %1 = phi i32 [ %.pre, %for.body.preheader ], [ %inc3, %for.inc ]
  %indvars.iv = phi i64 [ %0, %for.body.preheader ], [ %indvars.iv.next, %for.inc ]
  %2 = load ptr, ptr %next_removed, align 8
  %3 = load i32, ptr %2, align 4
  %cmp1 = icmp eq i32 %3, %1
  br i1 %cmp1, label %if.then, label %if.end

if.then:                                          ; preds = %for.body
  %incdec.ptr = getelementptr inbounds i8, ptr %2, i64 4
  store ptr %incdec.ptr, ptr %next_removed, align 8
  br label %for.inc

if.end:                                           ; preds = %for.body
  %4 = load i32, ptr %dest_idx, align 4
  %inc = add i32 %4, 1
  store i32 %inc, ptr %dest_idx, align 4
  %5 = load ptr, ptr %src_layout, align 8
  %arrayidx.i.i = getelementptr inbounds %"class.datalog::sparse_table::column_info", ptr %5, i64 %indvars.iv
  %6 = load i32, ptr %arrayidx.i.i, align 8
  %idx.ext.i.i = zext i32 %6 to i64
  %add.ptr.i.i = getelementptr inbounds i8, ptr %src, i64 %idx.ext.i.i
  %res.0.copyload.i.i = load i64, ptr %add.ptr.i.i, align 1
  %m_small_offset.i.i = getelementptr inbounds i8, ptr %arrayidx.i.i, i64 4
  %7 = load i32, ptr %m_small_offset.i.i, align 4
  %sh_prom.i.i = zext nneg i32 %7 to i64
  %shr.i.i = lshr i64 %res.0.copyload.i.i, %sh_prom.i.i
  %m_mask.i.i = getelementptr inbounds i8, ptr %arrayidx.i.i, i64 8
  %8 = load i64, ptr %m_mask.i.i, align 8
  %and.i.i = and i64 %shr.i.i, %8
  %9 = load ptr, ptr %dest_layout, align 8
  %idxprom.i.i5 = zext i32 %4 to i64
  %arrayidx.i.i6 = getelementptr inbounds %"class.datalog::sparse_table::column_info", ptr %9, i64 %idxprom.i.i5
  %10 = load i32, ptr %arrayidx.i.i6, align 8
  %idx.ext.i.i7 = zext i32 %10 to i64
  %add.ptr.i.i8 = getelementptr inbounds i8, ptr %dest, i64 %idx.ext.i.i7
  %cell.0.copyload.i.i = load i64, ptr %add.ptr.i.i8, align 1
  %m_write_mask.i.i = getelementptr inbounds i8, ptr %arrayidx.i.i6, i64 16
  %11 = load i64, ptr %m_write_mask.i.i, align 8
  %and.i.i9 = and i64 %11, %cell.0.copyload.i.i
  %m_small_offset.i.i10 = getelementptr inbounds i8, ptr %arrayidx.i.i6, i64 4
  %12 = load i32, ptr %m_small_offset.i.i10, align 4
  %sh_prom.i.i11 = zext nneg i32 %12 to i64
  %shl.i.i = shl i64 %and.i.i, %sh_prom.i.i11
  %or.i.i = or i64 %shl.i.i, %and.i.i9
  store i64 %or.i.i, ptr %add.ptr.i.i8, align 1
  br label %for.inc

for.inc:                                          ; preds = %if.end, %if.then
  %indvars.iv.next = add nuw nsw i64 %indvars.iv, 1
  %13 = load i32, ptr %pre_projection_idx, align 4
  %inc3 = add i32 %13, 1
  store i32 %inc3, ptr %pre_projection_idx, align 4
  %exitcond.not = icmp eq i64 %indvars.iv.next, %wide.trip.count
  br i1 %exitcond.not, label %for.end, label %for.body, !llvm.loop !32

for.end:                                          ; preds = %for.inc, %entry
  ret void
}